; Function Attrs: nounwind uwtable
define i32 @EVP_PKEY_paramgen(ptr noundef %0, ptr noundef captures(address_is_null) %1) local_unnamed_addr #0 {
  %3 = load i32, ptr %0, align 8, !tbaa !3
  %.not = icmp eq i32 %3, 2
  br i1 %.not, label %5, label %4

4:                                                ; preds = %2
  tail call void @ERR_new() #6
  tail call void @ERR_set_debug(ptr noundef nonnull @.str, i32 noundef 262, ptr noundef nonnull @__func__.EVP_PKEY_paramgen) #6
  tail call void (i32, i32, ptr, ...) @ERR_set_error(i32 noundef 6, i32 noundef 151, ptr noundef null) #6
  br label %7

5:                                                ; preds = %2
  %6 = tail call i32 @EVP_PKEY_generate(ptr noundef nonnull %0, ptr noundef %1)
  br label %7

7:                                                ; preds = %5, %4
  %.0 = phi i32 [ -1, %4 ], [ %6, %5 ]
  ret i32 %.0
}